; Function Attrs: cold nounwind optsize uwtable
define internal void @uninit(ptr noundef readonly captures(none) %0) #0 {
  %2 = getelementptr inbounds nuw i8, ptr %0, i64 72
  %3 = load ptr, ptr %2, align 8, !tbaa !4
  %4 = getelementptr inbounds nuw i8, ptr %3, i64 416
  tail call void @av_frame_free(ptr noundef nonnull %4) #6
  %5 = getelementptr inbounds nuw i8, ptr %3, i64 376
  tail call void @av_freep(ptr noundef nonnull %5) #6
  %6 = getelementptr inbounds nuw i8, ptr %3, i64 368
  tail call void @av_freep(ptr noundef nonnull %6) #6
  %7 = getelementptr inbounds nuw i8, ptr %3, i64 384
  tail call void @av_freep(ptr noundef nonnull %7) #6
  %8 = getelementptr inbounds nuw i8, ptr %3, i64 392
  tail call void @av_freep(ptr noundef nonnull %8) #6
  %9 = getelementptr inbounds nuw i8, ptr %3, i64 424
  tail call void @av_tx_uninit(ptr noundef nonnull %9) #6
  %10 = getelementptr inbounds nuw i8, ptr %3, i64 432
  tail call void @av_tx_uninit(ptr noundef nonnull %10) #6
  ret void
}